target datalayout = "e-m:e-p270:32:32-p271:32:32-p272:64:64-i64:64-i128:128-f80:128-n8:16:32:64-S128"
target triple = "x86_64-pc-linux-gnu"

%struct.pdcp_channel_hash_key = type { i32 }
%struct._packet_info = type { ptr, ptr, i32, i32, %struct.nstime_t, %struct.nstime_t, %struct.nstime_t, i8, ptr, ptr, ptr, ptr, %struct._address, %struct._address, %struct._address, %struct._address, %struct._address, %struct._address, i32, ptr, i8, [3 x i8], %struct.anon, i32, i32, i32, i32, ptr, i8, ptr, ptr, i16, i16, i32, i32, i16, i32, i32, ptr, ptr, ptr, i8, i8, i16, i16, i16, i32, i16, i16, ptr, ptr, ptr, ptr, ptr, i32, i32 }
%struct.nstime_t = type { i64, i32 }
%struct._address = type { i32, i32, ptr, ptr }
%struct.anon = type { i8, [3 x i8] }
%struct._frame_data = type <{ i32, i32, i32, i32, i32, [4 x i8], i64, ptr, ptr, ptr, i8, i16, [5 x i8], %struct.nstime_t, %struct.nstime_t, i32, i32 }>
%struct.pdcp_channel_status = type { i32, i32, i32 }

@pdcp_sequence_analysis_channel_hash = internal global ptr null, align 8

; Function Attrs: alwaysinline nounwind
define internal ptr @memcpy.inline(ptr noalias %0, ptr noalias %1, i64 %2) #8 {
  %4 = alloca ptr, align 8
  %5 = alloca ptr, align 8
  %6 = alloca i64, align 8
  store ptr %0, ptr %4, align 8
  store ptr %1, ptr %5, align 8
  store i64 %2, ptr %6, align 8
  %7 = load ptr, ptr %4, align 8
  %8 = load ptr, ptr %5, align 8
  %9 = load i64, ptr %6, align 8
  %10 = load ptr, ptr %4, align 8
  %11 = call i64 @llvm.objectsize.i64.p0(ptr %10, i1 false, i1 true, i1 true)
  %12 = call ptr @__memcpy_chk(ptr noundef %7, ptr noundef %8, i64 noundef %9, i64 noundef %11) #15
  ret ptr %12
}

; Function Attrs: nounwind null_pointer_is_valid sspstrong uwtable
define internal ptr @get_channel_hash_key(ptr noundef %0) #5 {
  %2 = alloca ptr, align 8
  %3 = alloca i32, align 4
  store ptr %0, ptr %2, align 8
  call void @llvm.lifetime.start.p0(i64 4, ptr %3) #15
  store i32 0, ptr %3, align 4
  %4 = load ptr, ptr %2, align 8
  %5 = call ptr @memcpy.inline(ptr noundef %3, ptr noundef %4, i64 noundef 4) #15
  %6 = load i32, ptr %3, align 4
  %7 = zext i32 %6 to i64
  %8 = inttoptr i64 %7 to ptr
  call void @llvm.lifetime.end.p0(i64 4, ptr %3) #15
  ret ptr %8
}

; Function Attrs: null_pointer_is_valid sspstrong uwtable
define hidden void @pdcp_lte_reset_ue_bearers(ptr noundef %0, i16 noundef zeroext %1, i1 noundef zeroext %2) #0 {
  %4 = alloca ptr, align 8
  %5 = alloca i16, align 2
  %6 = alloca i8, align 1
  %7 = alloca %struct.pdcp_channel_hash_key, align 4
  %8 = alloca ptr, align 8
  %9 = alloca i32, align 4
  %10 = alloca i32, align 4
  %11 = alloca i32, align 4
  %12 = alloca i32, align 4
  %13 = alloca i32, align 4
  store ptr %0, ptr %4, align 8
  store i16 %1, ptr %5, align 2
  %14 = zext i1 %2 to i8
  store i8 %14, ptr %6, align 1
  %15 = load ptr, ptr %4, align 8
  %16 = getelementptr inbounds nuw %struct._packet_info, ptr %15, i32 0, i32 8
  %17 = load ptr, ptr %16, align 8
  %18 = getelementptr inbounds nuw %struct._frame_data, ptr %17, i32 0, i32 11
  %19 = load i16, ptr %18, align 1
  %20 = lshr i16 %19, 3
  %21 = and i16 %20, 1
  %22 = zext i16 %21 to i32
  %23 = icmp ne i32 %22, 0
  br i1 %23, label %24, label %25

24:                                               ; preds = %3
  br label %138

25:                                               ; preds = %3
  call void @llvm.lifetime.start.p0(i64 4, ptr %7) #15
  call void @llvm.lifetime.start.p0(i64 8, ptr %8) #15
  %26 = load i32, ptr %7, align 4
  %27 = and i32 %26, 33554431
  %28 = or i32 %27, 0
  store i32 %28, ptr %7, align 4
  %29 = load i16, ptr %5, align 2
  %30 = zext i16 %29 to i32
  %31 = load i32, ptr %7, align 4
  %32 = and i32 %30, 65535
  %33 = and i32 %31, -65536
  %34 = or i32 %33, %32
  store i32 %34, ptr %7, align 4
  %35 = load i32, ptr %7, align 4
  %36 = and i32 %35, -196609
  %37 = or i32 %36, 65536
  store i32 %37, ptr %7, align 4
  call void @llvm.lifetime.start.p0(i64 4, ptr %9) #15
  store i32 1, ptr %9, align 4
  br label %38

38:                                               ; preds = %77, %25
  %39 = load i32, ptr %9, align 4
  %40 = icmp ule i32 %39, 2
  br i1 %40, label %42, label %41

41:                                               ; preds = %38
  store i32 2, ptr %10, align 4
  call void @llvm.lifetime.end.p0(i64 4, ptr %9) #15
  br label %80

42:                                               ; preds = %38
  call void @llvm.lifetime.start.p0(i64 4, ptr %11) #15
  store i32 0, ptr %11, align 4
  br label %43

43:                                               ; preds = %73, %42
  %44 = load i32, ptr %11, align 4
  %45 = icmp ule i32 %44, 1
  br i1 %45, label %47, label %46

46:                                               ; preds = %43
  store i32 5, ptr %10, align 4
  call void @llvm.lifetime.end.p0(i64 4, ptr %11) #15
  br label %76

47:                                               ; preds = %43
  %48 = load i32, ptr %9, align 4
  %49 = load i32, ptr %7, align 4
  %50 = and i32 %48, 63
  %51 = shl i32 %50, 18
  %52 = and i32 %49, -16515073
  %53 = or i32 %52, %51
  store i32 %53, ptr %7, align 4
  %54 = load i32, ptr %11, align 4
  %55 = load i32, ptr %7, align 4
  %56 = and i32 %54, 1
  %57 = shl i32 %56, 24
  %58 = and i32 %55, -16777217
  %59 = or i32 %58, %57
  store i32 %59, ptr %7, align 4
  %60 = load ptr, ptr @pdcp_sequence_analysis_channel_hash, align 8
  %61 = call ptr @get_channel_hash_key(ptr noundef %7)
  %62 = call ptr @wmem_map_lookup(ptr noundef %60, ptr noundef %61)
  store ptr %62, ptr %8, align 8
  %63 = load ptr, ptr %8, align 8
  %64 = icmp ne ptr %63, null
  br i1 %64, label %65, label %72

65:                                               ; preds = %47
  %66 = load ptr, ptr %8, align 8
  %67 = getelementptr inbounds nuw %struct.pdcp_channel_status, ptr %66, i32 0, i32 2
  store i32 0, ptr %67, align 4
  %68 = load ptr, ptr %8, align 8
  %69 = getelementptr inbounds nuw %struct.pdcp_channel_status, ptr %68, i32 0, i32 1
  store i32 0, ptr %69, align 4
  %70 = load ptr, ptr %8, align 8
  %71 = getelementptr inbounds nuw %struct.pdcp_channel_status, ptr %70, i32 0, i32 0
  store i32 -1, ptr %71, align 4
  br label %72

72:                                               ; preds = %65, %47
  br label %73

73:                                               ; preds = %72
  %74 = load i32, ptr %11, align 4
  %75 = add i32 %74, 1
  store i32 %75, ptr %11, align 4
  br label %43, !llvm.loop !10

76:                                               ; preds = %46
  br label %77

77:                                               ; preds = %76
  %78 = load i32, ptr %9, align 4
  %79 = add i32 %78, 1
  store i32 %79, ptr %9, align 4
  br label %38, !llvm.loop !11

80:                                               ; preds = %41
  %81 = load i32, ptr %7, align 4
  %82 = and i32 %81, -196609
  %83 = or i32 %82, 131072
  store i32 %83, ptr %7, align 4
  call void @llvm.lifetime.start.p0(i64 4, ptr %12) #15
  store i32 1, ptr %12, align 4
  br label %84

84:                                               ; preds = %134, %80
  %85 = load i32, ptr %12, align 4
  %86 = icmp ule i32 %85, 32
  br i1 %86, label %88, label %87

87:                                               ; preds = %84
  store i32 8, ptr %10, align 4
  call void @llvm.lifetime.end.p0(i64 4, ptr %12) #15
  br label %137

88:                                               ; preds = %84
  call void @llvm.lifetime.start.p0(i64 4, ptr %13) #15
  store i32 0, ptr %13, align 4
  br label %89

89:                                               ; preds = %130, %88
  %90 = load i32, ptr %13, align 4
  %91 = icmp ule i32 %90, 1
  br i1 %91, label %93, label %92

92:                                               ; preds = %89
  store i32 11, ptr %10, align 4
  call void @llvm.lifetime.end.p0(i64 4, ptr %13) #15
  br label %133

93:                                               ; preds = %89
  %94 = load i32, ptr %12, align 4
  %95 = load i32, ptr %7, align 4
  %96 = and i32 %94, 63
  %97 = shl i32 %96, 18
  %98 = and i32 %95, -16515073
  %99 = or i32 %98, %97
  store i32 %99, ptr %7, align 4
  %100 = load i32, ptr %13, align 4
  %101 = load i32, ptr %7, align 4
  %102 = and i32 %100, 1
  %103 = shl i32 %102, 24
  %104 = and i32 %101, -16777217
  %105 = or i32 %104, %103
  store i32 %105, ptr %7, align 4
  %106 = load ptr, ptr @pdcp_sequence_analysis_channel_hash, align 8
  %107 = call ptr @get_channel_hash_key(ptr noundef %7)
  %108 = call ptr @wmem_map_lookup(ptr noundef %106, ptr noundef %107)
  store ptr %108, ptr %8, align 8
  %109 = load ptr, ptr %8, align 8
  %110 = icmp ne ptr %109, null
  br i1 %110, label %111, label %129

111:                                              ; preds = %93
  %112 = load i8, ptr %6, align 1, !range !8, !noundef !9
  %113 = trunc i8 %112 to i1
  br i1 %113, label %121, label %114

114:                                              ; preds = %111
  %115 = load i16, ptr %5, align 2
  %116 = load i32, ptr %12, align 4
  %117 = trunc i32 %116 to i8
  %118 = call zeroext i8 @get_mac_lte_channel_mode(i16 noundef zeroext %115, i8 noundef zeroext %117)
  %119 = zext i8 %118 to i32
  %120 = icmp eq i32 %119, 2
  br i1 %120, label %121, label %128

121:                                              ; preds = %114, %111
  %122 = load ptr, ptr %8, align 8
  %123 = getelementptr inbounds nuw %struct.pdcp_channel_status, ptr %122, i32 0, i32 2
  store i32 0, ptr %123, align 4
  %124 = load ptr, ptr %8, align 8
  %125 = getelementptr inbounds nuw %struct.pdcp_channel_status, ptr %124, i32 0, i32 1
  store i32 0, ptr %125, align 4
  %126 = load ptr, ptr %8, align 8
  %127 = getelementptr inbounds nuw %struct.pdcp_channel_status, ptr %126, i32 0, i32 0
  store i32 -1, ptr %127, align 4
  br label %128

128:                                              ; preds = %121, %114
  br label %129

129:                                              ; preds = %128, %93
  br label %130

130:                                              ; preds = %129
  %131 = load i32, ptr %13, align 4
  %132 = add i32 %131, 1
  store i32 %132, ptr %13, align 4
  br label %89, !llvm.loop !12

133:                                              ; preds = %92
  br label %134

134:                                              ; preds = %133
  %135 = load i32, ptr %12, align 4
  %136 = add i32 %135, 1
  store i32 %136, ptr %12, align 4
  br label %84, !llvm.loop !13

137:                                              ; preds = %87
  call void @llvm.lifetime.end.p0(i64 8, ptr %8) #15
  call void @llvm.lifetime.end.p0(i64 4, ptr %7) #15
  br label %138

138:                                              ; preds = %137, %24
  ret void
}