; Function Attrs: null_pointer_is_valid sspstrong uwtable
define hidden void @pdcp_lte_reset_ue_bearers(ptr noundef readonly captures(none) %0, i16 noundef zeroext %1, i1 noundef zeroext %2) local_unnamed_addr #0 {
  %4 = getelementptr inbounds nuw i8, ptr %0, i64 80
  %5 = load ptr, ptr %4, align 8
  %6 = getelementptr inbounds nuw i8, ptr %5, i64 57
  %7 = load i16, ptr %6, align 1
  %8 = and i16 %7, 8
  %.not = icmp eq i16 %8, 0
  br i1 %.not, label %9, label %.loopexit

9:                                                ; preds = %3
  %10 = zext i16 %1 to i32
  %11 = or disjoint i32 %10, 65536
  br label %.preheader36

.preheader36:                                     ; preds = %9, %31
  %.02640 = phi i32 [ 1, %9 ], [ %32, %31 ]
  %.sroa.0.039 = phi i32 [ %11, %9 ], [ %37, %31 ]
  %12 = shl nuw nsw i32 %.02640, 18
  br label %33

13:                                               ; preds = %31
  %14 = and i32 %37, -196609
  %15 = or disjoint i32 %14, 131072
  br i1 %2, label %.preheader.us, label %.preheader

.preheader.us:                                    ; preds = %13, %.split.us.us
  %.02444.us = phi i32 [ %30, %.split.us.us ], [ 1, %13 ]
  %.sroa.0.243.us = phi i32 [ %21, %.split.us.us ], [ %15, %13 ]
  %16 = shl nuw nsw i32 %.02444.us, 18
  br label %17

17:                                               ; preds = %29, %.preheader.us
  %18 = phi i1 [ true, %.preheader.us ], [ false, %29 ]
  %.042.us.us = phi i32 [ 0, %.preheader.us ], [ 16777216, %29 ]
  %.sroa.0.341.us.us = phi i32 [ %.sroa.0.243.us, %.preheader.us ], [ %21, %29 ]
  %19 = and i32 %.sroa.0.341.us.us, -33292289
  %20 = add nuw nsw i32 %19, %16
  %21 = add nuw nsw i32 %20, %.042.us.us
  %22 = load ptr, ptr @pdcp_sequence_analysis_channel_hash, align 8
  %23 = zext i32 %21 to i64
  %24 = inttoptr i64 %23 to ptr
  %25 = tail call ptr @wmem_map_lookup(ptr noundef %22, ptr noundef nonnull %24)
  %.not29.us.us = icmp eq ptr %25, null
  br i1 %.not29.us.us, label %29, label %26

26:                                               ; preds = %17
  %27 = getelementptr inbounds nuw i8, ptr %25, i64 8
  store i32 0, ptr %27, align 4
  %28 = getelementptr inbounds nuw i8, ptr %25, i64 4
  store i32 0, ptr %28, align 4
  store i32 -1, ptr %25, align 4
  br label %29

29:                                               ; preds = %26, %17
  br i1 %18, label %17, label %.split.us.us, !llvm.loop !11

.split.us.us:                                     ; preds = %29
  %30 = add nuw nsw i32 %.02444.us, 1
  %exitcond50.not = icmp eq i32 %30, 33
  br i1 %exitcond50.not, label %.loopexit, label %.preheader.us, !llvm.loop !12

31:                                               ; preds = %45
  %32 = add nuw nsw i32 %.02640, 1
  %exitcond.not = icmp eq i32 %32, 3
  br i1 %exitcond.not, label %13, label %.preheader36, !llvm.loop !13

33:                                               ; preds = %.preheader36, %45
  %34 = phi i1 [ true, %.preheader36 ], [ false, %45 ]
  %.02538 = phi i32 [ 0, %.preheader36 ], [ 16777216, %45 ]
  %.sroa.0.137 = phi i32 [ %.sroa.0.039, %.preheader36 ], [ %37, %45 ]
  %35 = and i32 %.sroa.0.137, -33292289
  %36 = add nuw nsw i32 %35, %12
  %37 = add nuw nsw i32 %36, %.02538
  %38 = load ptr, ptr @pdcp_sequence_analysis_channel_hash, align 8
  %39 = zext i32 %37 to i64
  %40 = inttoptr i64 %39 to ptr
  %41 = tail call ptr @wmem_map_lookup(ptr noundef %38, ptr noundef nonnull %40)
  %.not30 = icmp eq ptr %41, null
  br i1 %.not30, label %45, label %42

42:                                               ; preds = %33
  %43 = getelementptr inbounds nuw i8, ptr %41, i64 8
  store i32 0, ptr %43, align 4
  %44 = getelementptr inbounds nuw i8, ptr %41, i64 4
  store i32 0, ptr %44, align 4
  store i32 -1, ptr %41, align 4
  br label %45

45:                                               ; preds = %33, %42
  br i1 %34, label %33, label %31, !llvm.loop !14

.preheader:                                       ; preds = %13, %.split
  %.02444 = phi i32 [ %48, %.split ], [ 1, %13 ]
  %.sroa.0.243 = phi i32 [ %53, %.split ], [ %15, %13 ]
  %46 = shl nuw nsw i32 %.02444, 18
  %47 = trunc nuw nsw i32 %.02444 to i8
  br label %49

.split:                                           ; preds = %64
  %48 = add nuw nsw i32 %.02444, 1
  %exitcond49.not = icmp eq i32 %48, 33
  br i1 %exitcond49.not, label %.loopexit, label %.preheader, !llvm.loop !12

49:                                               ; preds = %.preheader, %64
  %50 = phi i1 [ true, %.preheader ], [ false, %64 ]
  %.042 = phi i32 [ 0, %.preheader ], [ 16777216, %64 ]
  %.sroa.0.341 = phi i32 [ %.sroa.0.243, %.preheader ], [ %53, %64 ]
  %51 = and i32 %.sroa.0.341, -33292289
  %52 = add nuw nsw i32 %51, %46
  %53 = add nuw nsw i32 %52, %.042
  %54 = load ptr, ptr @pdcp_sequence_analysis_channel_hash, align 8
  %55 = zext i32 %53 to i64
  %56 = inttoptr i64 %55 to ptr
  %57 = tail call ptr @wmem_map_lookup(ptr noundef %54, ptr noundef nonnull %56)
  %.not29 = icmp eq ptr %57, null
  br i1 %.not29, label %64, label %58

58:                                               ; preds = %49
  %59 = tail call zeroext i8 @get_mac_lte_channel_mode(i16 noundef zeroext %1, i8 noundef zeroext %47)
  %60 = icmp eq i8 %59, 2
  br i1 %60, label %61, label %64

61:                                               ; preds = %58
  %62 = getelementptr inbounds nuw i8, ptr %57, i64 8
  store i32 0, ptr %62, align 4
  %63 = getelementptr inbounds nuw i8, ptr %57, i64 4
  store i32 0, ptr %63, align 4
  store i32 -1, ptr %57, align 4
  br label %64

64:                                               ; preds = %49, %61, %58
  br i1 %50, label %49, label %.split, !llvm.loop !11

.loopexit:                                        ; preds = %.split, %.split.us.us, %3
  ret void
}